target datalayout = "e-m:e-p270:32:32-p271:32:32-p272:64:64-i64:64-i128:128-f80:128-n8:16:32:64-S128"
target triple = "x86_64-pc-linux-gnu"

@ett_ip_assignment = internal global i32 0, align 4
@.str.332 = private unnamed_addr constant [6 x i8] c" = %s\00", align 1
@.str.374 = private unnamed_addr constant [7 x i8] c"AutoIP\00", align 1
@.str.375 = private unnamed_addr constant [5 x i8] c"DHCP\00", align 1
@.str.376 = private unnamed_addr constant [6 x i8] c"BootP\00", align 1
@.str.377 = private unnamed_addr constant [7 x i8] c"manual\00", align 1

; Function Attrs: null_pointer_is_valid sspstrong uwtable
define internal ptr @knxip_tree_add_ip_assignment(ptr noundef %0, i32 noundef %1, ptr noundef %2, i32 noundef %3, i8 noundef zeroext %4) #0 {
  %6 = alloca ptr, align 8
  %7 = alloca i32, align 4
  %8 = alloca ptr, align 8
  %9 = alloca i32, align 4
  %10 = alloca i8, align 1
  %11 = alloca ptr, align 8
  %12 = alloca ptr, align 8
  %13 = alloca [128 x i8], align 16
  store ptr %0, ptr %6, align 8
  store i32 %1, ptr %7, align 4
  store ptr %2, ptr %8, align 8
  store i32 %3, ptr %9, align 4
  store i8 %4, ptr %10, align 1
  call void @llvm.lifetime.start.p0(i64 8, ptr %11) #9
  %14 = load ptr, ptr %6, align 8
  %15 = load i32, ptr %7, align 4
  %16 = load ptr, ptr %8, align 8
  %17 = load i32, ptr %9, align 4
  %18 = call ptr @proto_tree_add_item(ptr noundef %14, i32 noundef %15, ptr noundef %16, i32 noundef %17, i32 noundef 1, i32 noundef 0)
  store ptr %18, ptr %11, align 8
  call void @llvm.lifetime.start.p0(i64 8, ptr %12) #9
  %19 = load ptr, ptr %11, align 8
  %20 = load i32, ptr @ett_ip_assignment, align 4
  %21 = call ptr @proto_item_add_subtree(ptr noundef %19, i32 noundef %20)
  store ptr %21, ptr %12, align 8
  call void @llvm.lifetime.start.p0(i64 128, ptr %13) #9
  %22 = getelementptr inbounds [128 x i8], ptr %13, i64 0, i64 0
  store i8 0, ptr %22, align 16
  %23 = load ptr, ptr %12, align 8
  %24 = load ptr, ptr %8, align 8
  %25 = load i32, ptr %9, align 4
  %26 = load i8, ptr %10, align 1
  %27 = zext i8 %26 to i32
  %28 = add i32 2, %27
  %29 = getelementptr inbounds [128 x i8], ptr %13, i64 0, i64 0
  %30 = call ptr @knxip_tree_add_bit(ptr noundef %23, ptr noundef %24, i32 noundef %25, i32 noundef %28, ptr noundef @.str.374, ptr noundef %29, i32 noundef 128)
  %31 = load ptr, ptr %12, align 8
  %32 = load ptr, ptr %8, align 8
  %33 = load i32, ptr %9, align 4
  %34 = load i8, ptr %10, align 1
  %35 = zext i8 %34 to i32
  %36 = add i32 1, %35
  %37 = getelementptr inbounds [128 x i8], ptr %13, i64 0, i64 0
  %38 = call ptr @knxip_tree_add_bit(ptr noundef %31, ptr noundef %32, i32 noundef %33, i32 noundef %36, ptr noundef @.str.375, ptr noundef %37, i32 noundef 128)
  %39 = load ptr, ptr %12, align 8
  %40 = load ptr, ptr %8, align 8
  %41 = load i32, ptr %9, align 4
  %42 = load i8, ptr %10, align 1
  %43 = zext i8 %42 to i32
  %44 = add i32 0, %43
  %45 = getelementptr inbounds [128 x i8], ptr %13, i64 0, i64 0
  %46 = call ptr @knxip_tree_add_bit(ptr noundef %39, ptr noundef %40, i32 noundef %41, i32 noundef %44, ptr noundef @.str.376, ptr noundef %45, i32 noundef 128)
  %47 = load i8, ptr %10, align 1
  %48 = icmp ne i8 %47, 0
  br i1 %48, label %49, label %55

49:                                               ; preds = %5
  %50 = load ptr, ptr %12, align 8
  %51 = load ptr, ptr %8, align 8
  %52 = load i32, ptr %9, align 4
  %53 = getelementptr inbounds [128 x i8], ptr %13, i64 0, i64 0
  %54 = call ptr @knxip_tree_add_bit(ptr noundef %50, ptr noundef %51, i32 noundef %52, i32 noundef 0, ptr noundef @.str.377, ptr noundef %53, i32 noundef 128)
  br label %55

55:                                               ; preds = %49, %5
  %56 = getelementptr inbounds [128 x i8], ptr %13, i64 0, i64 0
  %57 = load i8, ptr %56, align 16
  %58 = icmp ne i8 %57, 0
  br i1 %58, label %59, label %62

59:                                               ; preds = %55
  %60 = load ptr, ptr %11, align 8
  %61 = getelementptr inbounds [128 x i8], ptr %13, i64 0, i64 0
  call void (ptr, ptr, ...) @proto_item_append_text(ptr noundef %60, ptr noundef @.str.332, ptr noundef %61)
  br label %62

62:                                               ; preds = %59, %55
  %63 = load ptr, ptr %11, align 8
  call void @llvm.lifetime.end.p0(i64 128, ptr %13) #9
  call void @llvm.lifetime.end.p0(i64 8, ptr %12) #9
  call void @llvm.lifetime.end.p0(i64 8, ptr %11) #9
  ret ptr %63
}