; Function Attrs: null_pointer_is_valid sspstrong uwtable
define internal fastcc void @knxip_tree_add_ip_assignment(ptr noundef %0, i32 noundef %1, ptr noundef %2, i32 noundef %3, i8 noundef zeroext range(i8 0, 2) %4) unnamed_addr #0 {
  %6 = alloca [128 x i8], align 16
  %7 = tail call ptr @proto_tree_add_item(ptr noundef %0, i32 noundef %1, ptr noundef %2, i32 noundef %3, i32 noundef 1, i32 noundef 0)
  %8 = load i32, ptr @ett_ip_assignment, align 4
  %9 = tail call ptr @proto_item_add_subtree(ptr noundef %7, i32 noundef %8)
  call void @llvm.lifetime.start.p0(i64 128, ptr nonnull %6) #11
  store i8 0, ptr %6, align 16
  %10 = zext nneg i8 %4 to i32
  %11 = or disjoint i32 %10, 2
  call fastcc void @knxip_tree_add_bit(ptr noundef %9, ptr noundef %2, i32 noundef %3, i32 noundef %11, ptr noundef nonnull @.str.374, ptr noundef nonnull %6, i32 noundef 128)
  %12 = add nuw nsw i32 %10, 1
  call fastcc void @knxip_tree_add_bit(ptr noundef %9, ptr noundef %2, i32 noundef %3, i32 noundef %12, ptr noundef nonnull @.str.375, ptr noundef nonnull %6, i32 noundef 128)
  call fastcc void @knxip_tree_add_bit(ptr noundef %9, ptr noundef %2, i32 noundef %3, i32 noundef %10, ptr noundef nonnull @.str.376, ptr noundef nonnull %6, i32 noundef 128)
  %.not = icmp eq i8 %4, 0
  br i1 %.not, label %14, label %13

13:                                               ; preds = %5
  call fastcc void @knxip_tree_add_bit(ptr noundef %9, ptr noundef %2, i32 noundef %3, i32 noundef 0, ptr noundef nonnull @.str.377, ptr noundef nonnull %6, i32 noundef 128)
  br label %14

14:                                               ; preds = %13, %5
  %15 = load i8, ptr %6, align 16
  %.not22 = icmp eq i8 %15, 0
  br i1 %.not22, label %17, label %16

16:                                               ; preds = %14
  call void (ptr, ptr, ...) @proto_item_append_text(ptr noundef %7, ptr noundef nonnull @.str.332, ptr noundef nonnull %6)
  br label %17

17:                                               ; preds = %16, %14
  call void @llvm.lifetime.end.p0(i64 128, ptr nonnull %6) #11
  ret void
}